Certificate:
    Data:
        Version: 3 (0x2)
        Serial Number: 1 (0x1)
        Signature Algorithm: sha1WithRSAEncryption
        Issuer: C=AU, ST=Some-State, O=Internet Widgits Pty Ltd
        Validity
            Not Before: Jun 28 00:39:54 2016 GMT
            Not After : Jun 28 00:39:54 2017 GMT
        Subject: C=AU, ST=Some-State, O=Internet Widgits Pty Ltd, OU=section, CN=aaron lim/emailAddress=aaron.lim.yu.kwang@gmail.com
        Subject Public Key Info:
            Public Key Algorithm: rsaEncryption
            RSA Public Key: (1024 bit)
                Modulus (1024 bit):
                    00:c3:a2:ed:7b:6e:b6:51:61:82:4f:1e:9c:2d:5f:
                    c9:30:bf:af:e0:42:6e:cd:bf:a7:28:b6:28:11:7d:
                    5d:5b:48:68:e8:1a:cc:90:a3:86:ff:18:5c:e1:56:
                    1b:05:77:28:12:eb:fe:2e:31:e8:66:aa:d9:35:a2:
                    e1:e5:ac:54:4e:9d:d1:35:78:cd:c7:17:bd:70:11:
                    f6:05:ac:87:a8:e5:ba:80:42:81:19:41:b1:76:a7:
                    6d:bd:96:aa:74:b8:bc:73:af:e7:83:b3:ca:9c:1a:
                    46:a4:e5:9c:5e:89:29:1e:cf:c3:4f:f0:74:4b:59:
                    f2:fc:74:9a:3d:a7:2c:0e:93
                Exponent: 65537 (0x10001)
        X509v3 extensions:
            X509v3 Basic Constraints: 
                CA:FALSE
            Netscape Comment: 
                OpenSSL Generated Certificate
            X509v3 Subject Key Identifier: 
                03:7C:1E:CB:37:1B:1E:51:7C:CD:45:A5:8B:1D:26:A1:EF:EC:50:F2
            X509v3 Authority Key Identifier: 
                keyid:95:FE:1B:E8:2C:57:16:DD:EB:E9:2B:0B:4A:41:FF:0F:40:47:CF:F7

    Signature Algorithm: sha1WithRSAEncryption
        54:7e:2e:5d:59:dc:bf:5a:09:52:30:7a:73:7e:4e:0e:d5:66:
        80:11:79:47:cf:ce:47:8f:07:af:4d:22:78:42:64:b1:01:6a:
        19:2b:b1:60:8b:f8:6c:77:ea:9f:10:3a:c1:10:c6:a6:35:a1:
        ed:bf:82:47:a5:01:86:c0:30:dd:d2:db:3d:24:64:b7:fe:db:
        73:46:2d:ad:de:17:a1:a7:2e:b9:cc:aa:04:40:18:f4:6c:a1:
        fe:97:f2:e7:ee:76:51:ce:45:bb:7e:ef:85:4a:b7:f3:42:10:
        48:de:89:2c:fe:d7:75:66:19:c2:01:4c:6b:96:51:82:a3:d0:
        64:b5:f1:1a:f1:29:f6:cb:6d:20:1c:1a:e3:1f:c7:c9:9f:ec:
        dd:0a:0e:fe:5b:7b:9e:7b:4d:7d:7c:ef:0e:10:98:4c:23:f8:
        d8:58:64:05:f0:37:80:6d:c2:78:12:c8:38:76:a1:a0:d9:7f:
        93:9f:77:1b:30:26:c5:4a:90:fa:33:0b:79:d1:b9:69:6f:20:
        4f:ff:46:12:47:ad:3b:d9:e7:90:9f:14:a7:e0:30:0d:2a:50:
        29:9e:79:ec:bb:9f:d9:34:17:a0:5e:e1:df:47:47:00:81:ed:
        64:d2:8e:34:df:24:bf:11:0e:aa:0f:7e:6f:2c:08:2d:61:44:
        c2:06:b5:88
-----BEGIN CERTIFICATE-----
MIIDUDCCAjigAwIBAgIBATANBgkqhkiG9w0BAQUFADBFMQswCQYDVQQGEwJBVTET
MBEGA1UECBMKU29tZS1TdGF0ZTEhMB8GA1UEChMYSW50ZXJuZXQgV2lkZ2l0cyBQ
dHkgTHRkMB4XDTE2MDYyODAwMzk1NFoXDTE3MDYyODAwMzk1NFowgZgxCzAJBgNV
BAYTAkFVMRMwEQYDVQQIEwpTb21lLVN0YXRlMSEwHwYDVQQKExhJbnRlcm5ldCBX
aWRnaXRzIFB0eSBMdGQxEDAOBgNVBAsTB3NlY3Rpb24xEjAQBgNVBAMTCWFhcm9u
IGxpbTErMCkGCSqGSIb3DQEJARYcYWFyb24ubGltLnl1Lmt3YW5nQGdtYWlsLmNv
bTCBnzANBgkqhkiG9w0BAQEFAAOBjQAwgYkCgYEAw6Lte262UWGCTx6cLV/JML+v
4EJuzb+nKLYoEX1dW0ho6BrMkKOG/xhc4VYbBXcoEuv+LjHoZqrZNaLh5axUTp3R
NXjNxxe9cBH2BayHqOW6gEKBGUGxdqdtvZaqdLi8c6/ng7PKnBpGpOWcXokpHs/D
T/B0S1ny/HSaPacsDpMCAwEAAaN7MHkwCQYDVR0TBAIwADAsBglghkgBhvhCAQ0E
HxYdT3BlblNTTCBHZW5lcmF0ZWQgQ2VydGlmaWNhdGUwHQYDVR0OBBYEFAN8Hss3
Gx5RfM1FpYsdJqHv7FDyMB8GA1UdIwQYMBaAFJX+G+gsVxbd6+krC0pB/w9AR8/3
MA0GCSqGSIb3DQEBBQUAA4IBAQBUfi5dWdy/WglSMHpzfk4O1WaAEXlHz85Hjwev
TSJ4QmSxAWoZK7Fgi/hsd+qfEDrBEMamNaHtv4JHpQGGwDDd0ts9JGS3/ttzRi2t
3hehpy65zKoEQBj0bKH+l/Ln7nZRzkW7fu+FSrfzQhBI3oks/td1ZhnCAUxrllGC
o9BktfEa8Sn2y20gHBrjH8fJn+zdCg7+W3uee019fO8OEJhMI/jYWGQF8DeAbcJ4
Esg4dqGg2X+Tn3cbMCbFSpD6Mwt50blpbyBP/0YSR6072eeQnxSn4DANKlApnnns
u5/ZNBegXuHfR0cAge1k0o403yS/EQ6qD35vLAgtYUTCBrWI
-----END CERTIFICATE-----
