Certificate:
    Data:
        Version: 3 (0x2)
        Serial Number: 2 (0x2)
        Signature Algorithm: sha1WithRSAEncryption
        Issuer: C=AU, ST=Some-State, O=Internet Widgits Pty Ltd
        Validity
            Not Before: Jun 28 00:56:25 2016 GMT
            Not After : Jun 28 00:56:25 2017 GMT
        Subject: C=AU, ST=Some-State, O=Internet Widgits Pty Ltd, CN=aaron server/emailAddress=aaron.lim.yu.kwang@gmail.com
        Subject Public Key Info:
            Public Key Algorithm: rsaEncryption
            RSA Public Key: (1024 bit)
                Modulus (1024 bit):
                    00:ca:e3:46:af:c1:c3:8e:b4:da:d5:54:c7:4a:0a:
                    9b:95:6c:37:38:e0:aa:b6:64:87:f3:9e:48:41:c4:
                    75:a9:33:7a:ad:5f:3f:f1:b0:fb:51:47:f7:cf:e9:
                    c4:54:66:89:49:ca:6d:e4:c4:3a:4b:34:2a:f8:a4:
                    a1:35:4b:f4:2b:1e:ee:4f:c6:dd:fc:5e:03:ab:1b:
                    b5:2f:06:64:ed:5f:ff:8f:67:11:06:98:f5:73:4e:
                    b1:22:32:d2:6b:53:83:80:45:c7:c7:7d:18:ac:8d:
                    0d:ab:4e:3f:e0:bd:5b:9d:97:ed:30:27:ef:c0:26:
                    6e:e2:5f:56:a8:ba:01:38:e3
                Exponent: 65537 (0x10001)
        X509v3 extensions:
            X509v3 Basic Constraints: 
                CA:FALSE
            Netscape Comment: 
                OpenSSL Generated Certificate
            X509v3 Subject Key Identifier: 
                98:EA:5F:A1:FC:EA:BA:A0:97:3F:6D:2E:0E:5F:2B:04:4C:F9:01:44
            X509v3 Authority Key Identifier: 
                keyid:95:FE:1B:E8:2C:57:16:DD:EB:E9:2B:0B:4A:41:FF:0F:40:47:CF:F7

    Signature Algorithm: sha1WithRSAEncryption
        07:34:5d:c3:c3:20:66:55:bc:3d:4f:3f:02:40:13:e7:87:4d:
        ff:ff:52:47:46:c4:8d:02:44:46:c3:09:6c:29:fd:f2:03:0b:
        bc:4b:d1:04:ef:f2:d5:76:87:85:20:42:87:79:cb:7c:db:34:
        e9:c0:81:84:bd:ef:b5:30:2a:07:ac:e7:59:2d:36:ba:90:5c:
        8e:88:a2:15:84:48:a3:94:cd:b6:9d:26:08:64:07:b3:28:06:
        75:04:ae:8b:bf:58:97:df:31:54:e1:fd:23:db:a5:47:d0:87:
        08:26:62:9d:27:df:8b:7a:b8:3b:bf:d4:ec:c3:06:4f:d6:3d:
        71:47:53:e4:be:2d:89:9b:9a:9b:67:a3:4b:5e:5d:41:63:03:
        5c:b4:4b:2c:65:23:69:7b:20:53:e0:1c:db:92:30:b4:55:82:
        62:8e:6c:b0:44:ec:38:f7:fa:f8:3a:0d:50:cd:48:a7:5c:36:
        a2:96:77:67:3f:1e:7c:89:76:28:f2:d2:04:26:84:48:ae:3c:
        e0:4e:6c:63:89:f2:2d:bc:b5:a6:de:c8:59:87:9f:2d:36:4d:
        e4:27:d2:2c:4c:ab:8b:86:04:50:2a:d4:22:4c:41:2c:2c:c5:
        b9:ce:40:03:cf:de:3c:03:86:c7:99:2d:08:9e:3d:31:33:d0:
        39:c8:b6:14
-----BEGIN CERTIFICATE-----
MIIDQTCCAimgAwIBAgIBAjANBgkqhkiG9w0BAQUFADBFMQswCQYDVQQGEwJBVTET
MBEGA1UECBMKU29tZS1TdGF0ZTEhMB8GA1UEChMYSW50ZXJuZXQgV2lkZ2l0cyBQ
dHkgTHRkMB4XDTE2MDYyODAwNTYyNVoXDTE3MDYyODAwNTYyNVowgYkxCzAJBgNV
BAYTAkFVMRMwEQYDVQQIEwpTb21lLVN0YXRlMSEwHwYDVQQKExhJbnRlcm5ldCBX
aWRnaXRzIFB0eSBMdGQxFTATBgNVBAMTDGFhcm9uIHNlcnZlcjErMCkGCSqGSIb3
DQEJARYcYWFyb24ubGltLnl1Lmt3YW5nQGdtYWlsLmNvbTCBnzANBgkqhkiG9w0B
AQEFAAOBjQAwgYkCgYEAyuNGr8HDjrTa1VTHSgqblWw3OOCqtmSH855IQcR1qTN6
rV8/8bD7UUf3z+nEVGaJScpt5MQ6SzQq+KShNUv0Kx7uT8bd/F4Dqxu1LwZk7V//
j2cRBpj1c06xIjLSa1ODgEXHx30YrI0Nq04/4L1bnZftMCfvwCZu4l9WqLoBOOMC
AwEAAaN7MHkwCQYDVR0TBAIwADAsBglghkgBhvhCAQ0EHxYdT3BlblNTTCBHZW5l
cmF0ZWQgQ2VydGlmaWNhdGUwHQYDVR0OBBYEFJjqX6H86rqglz9tLg5fKwRM+QFE
MB8GA1UdIwQYMBaAFJX+G+gsVxbd6+krC0pB/w9AR8/3MA0GCSqGSIb3DQEBBQUA
A4IBAQAHNF3DwyBmVbw9Tz8CQBPnh03//1JHRsSNAkRGwwlsKf3yAwu8S9EE7/LV
doeFIEKHect82zTpwIGEve+1MCoHrOdZLTa6kFyOiKIVhEijlM22nSYIZAezKAZ1
BK6Lv1iX3zFU4f0j26VH0IcIJmKdJ9+Lerg7v9TswwZP1j1xR1Pkvi2Jm5qbZ6NL
Xl1BYwNctEssZSNpeyBT4BzbkjC0VYJijmywROw49/r4Og1QzUinXDailndnPx58
iXYo8tIEJoRIrjzgTmxjifItvLWm3shZh58tNk3kJ9IsTKuLhgRQKtQiTEEsLMW5
zkADz948A4bHmS0Inj0xM9A5yLYU
-----END CERTIFICATE-----
